target datalayout = "e-m:e-p270:32:32-p271:32:32-p272:64:64-i64:64-i128:128-f80:128-n8:16:32:64-S128"
target triple = "x86_64-pc-linux-gnu"

%struct.AVTXContext = type { i32, i32, ptr, ptr, ptr, ptr, [4 x ptr], i32, [4 x ptr], ptr, i32, i64, i32, float, double, ptr }
%struct.FFTXCodelet = type { ptr, ptr, i32, i64, [16 x i32], i32, i32, i32, ptr, ptr, i32, i32 }

; Function Attrs: nounwind uwtable
define internal void @reset_ctx(ptr noundef %0, i32 noundef %1) #0 {
  %3 = alloca ptr, align 8
  %4 = alloca i32, align 4
  %5 = alloca i32, align 4
  store ptr %0, ptr %3, align 8, !tbaa !4
  store i32 %1, ptr %4, align 4, !tbaa !11
  %6 = load ptr, ptr %3, align 8, !tbaa !4
  %7 = icmp ne ptr %6, null
  br i1 %7, label %9, label %8

8:                                                ; preds = %2
  br label %72

9:                                                ; preds = %2
  %10 = load ptr, ptr %3, align 8, !tbaa !4
  %11 = getelementptr inbounds nuw %struct.AVTXContext, ptr %10, i32 0, i32 5
  %12 = load ptr, ptr %11, align 8, !tbaa !42
  %13 = icmp ne ptr %12, null
  br i1 %13, label %14, label %32

14:                                               ; preds = %9
  call void @llvm.lifetime.start.p0(i64 4, ptr %5) #11
  store i32 0, ptr %5, align 4, !tbaa !11
  br label %15

15:                                               ; preds = %28, %14
  %16 = load i32, ptr %5, align 4, !tbaa !11
  %17 = icmp slt i32 %16, 4
  br i1 %17, label %19, label %18

18:                                               ; preds = %15
  call void @llvm.lifetime.end.p0(i64 4, ptr %5) #11
  br label %31

19:                                               ; preds = %15
  %20 = load ptr, ptr %3, align 8, !tbaa !4
  %21 = getelementptr inbounds nuw %struct.AVTXContext, ptr %20, i32 0, i32 5
  %22 = load ptr, ptr %21, align 8, !tbaa !42
  %23 = load i32, ptr %5, align 4, !tbaa !11
  %24 = sext i32 %23 to i64
  %25 = getelementptr inbounds %struct.AVTXContext, ptr %22, i64 %24
  %26 = load i32, ptr %4, align 4, !tbaa !11
  %27 = add nsw i32 %26, 1
  call void @reset_ctx(ptr noundef %25, i32 noundef %27)
  br label %28

28:                                               ; preds = %19
  %29 = load i32, ptr %5, align 4, !tbaa !11
  %30 = add nsw i32 %29, 1
  store i32 %30, ptr %5, align 4, !tbaa !11
  br label %15, !llvm.loop !47

31:                                               ; preds = %18
  br label %32

32:                                               ; preds = %31, %9
  %33 = load ptr, ptr %3, align 8, !tbaa !4
  %34 = getelementptr inbounds nuw %struct.AVTXContext, ptr %33, i32 0, i32 9
  %35 = load ptr, ptr %34, align 8, !tbaa !48
  %36 = icmp ne ptr %35, null
  br i1 %36, label %37, label %52

37:                                               ; preds = %32
  %38 = load ptr, ptr %3, align 8, !tbaa !4
  %39 = getelementptr inbounds nuw %struct.AVTXContext, ptr %38, i32 0, i32 9
  %40 = load ptr, ptr %39, align 8, !tbaa !48
  %41 = getelementptr inbounds nuw %struct.FFTXCodelet, ptr %40, i32 0, i32 9
  %42 = load ptr, ptr %41, align 8, !tbaa !49
  %43 = icmp ne ptr %42, null
  br i1 %43, label %44, label %52

44:                                               ; preds = %37
  %45 = load ptr, ptr %3, align 8, !tbaa !4
  %46 = getelementptr inbounds nuw %struct.AVTXContext, ptr %45, i32 0, i32 9
  %47 = load ptr, ptr %46, align 8, !tbaa !48
  %48 = getelementptr inbounds nuw %struct.FFTXCodelet, ptr %47, i32 0, i32 9
  %49 = load ptr, ptr %48, align 8, !tbaa !49
  %50 = load ptr, ptr %3, align 8, !tbaa !4
  %51 = call i32 %49(ptr noundef %50)
  br label %52

52:                                               ; preds = %44, %37, %32
  %53 = load i32, ptr %4, align 4, !tbaa !11
  %54 = icmp ne i32 %53, 0
  br i1 %54, label %55, label %58

55:                                               ; preds = %52
  %56 = load ptr, ptr %3, align 8, !tbaa !4
  %57 = getelementptr inbounds nuw %struct.AVTXContext, ptr %56, i32 0, i32 5
  call void @av_freep(ptr noundef %57)
  br label %58

58:                                               ; preds = %55, %52
  %59 = load ptr, ptr %3, align 8, !tbaa !4
  %60 = getelementptr inbounds nuw %struct.AVTXContext, ptr %59, i32 0, i32 2
  call void @av_freep(ptr noundef %60)
  %61 = load ptr, ptr %3, align 8, !tbaa !4
  %62 = getelementptr inbounds nuw %struct.AVTXContext, ptr %61, i32 0, i32 3
  call void @av_freep(ptr noundef %62)
  %63 = load ptr, ptr %3, align 8, !tbaa !4
  %64 = getelementptr inbounds nuw %struct.AVTXContext, ptr %63, i32 0, i32 4
  call void @av_freep(ptr noundef %64)
  %65 = load ptr, ptr %3, align 8, !tbaa !4
  %66 = getelementptr inbounds nuw %struct.AVTXContext, ptr %65, i32 0, i32 7
  store i32 0, ptr %66, align 8, !tbaa !52
  %67 = load ptr, ptr %3, align 8, !tbaa !4
  %68 = getelementptr inbounds nuw %struct.AVTXContext, ptr %67, i32 0, i32 15
  store ptr null, ptr %68, align 8, !tbaa !53
  %69 = load ptr, ptr %3, align 8, !tbaa !4
  %70 = getelementptr inbounds nuw %struct.AVTXContext, ptr %69, i32 0, i32 6
  %71 = getelementptr inbounds [4 x ptr], ptr %70, i64 0, i64 0
  call void @llvm.memset.p0.i64(ptr align 8 %71, i8 0, i64 8, i1 false)
  br label %72

72:                                               ; preds = %58, %8
  ret void
}