; Function Attrs: nounwind uwtable
define internal fastcc void @reset_ctx(ptr noundef %0, i32 noundef %1) unnamed_addr #0 {
  %.not = icmp eq ptr %0, null
  br i1 %.not, label %26, label %3

3:                                                ; preds = %2
  %4 = getelementptr inbounds nuw i8, ptr %0, i64 32
  %5 = load ptr, ptr %4, align 8, !tbaa !38
  %.not21 = icmp eq ptr %5, null
  br i1 %.not21, label %.loopexit, label %.preheader

.preheader:                                       ; preds = %3
  %6 = add nsw i32 %1, 1
  br label %7

7:                                                ; preds = %.preheader, %7
  %indvars.iv = phi i64 [ 0, %.preheader ], [ %indvars.iv.next, %7 ]
  %8 = load ptr, ptr %4, align 8, !tbaa !38
  %9 = getelementptr inbounds nuw %struct.AVTXContext, ptr %8, i64 %indvars.iv
  tail call fastcc void @reset_ctx(ptr noundef %9, i32 noundef %6)
  %indvars.iv.next = add nuw nsw i64 %indvars.iv, 1
  %exitcond.not = icmp eq i64 %indvars.iv.next, 4
  br i1 %exitcond.not, label %.loopexit, label %7, !llvm.loop !43

.loopexit:                                        ; preds = %7, %3
  %10 = getelementptr inbounds nuw i8, ptr %0, i64 112
  %11 = load ptr, ptr %10, align 8, !tbaa !44
  %.not22 = icmp eq ptr %11, null
  br i1 %.not22, label %17, label %12

12:                                               ; preds = %.loopexit
  %13 = getelementptr inbounds nuw i8, ptr %11, i64 120
  %14 = load ptr, ptr %13, align 8, !tbaa !45
  %.not23 = icmp eq ptr %14, null
  br i1 %.not23, label %17, label %15

15:                                               ; preds = %12
  %16 = tail call i32 %14(ptr noundef nonnull %0) #13
  br label %17

17:                                               ; preds = %15, %12, %.loopexit
  %.not24 = icmp eq i32 %1, 0
  br i1 %.not24, label %19, label %18

18:                                               ; preds = %17
  tail call void @av_freep(ptr noundef nonnull %4) #13
  br label %19

19:                                               ; preds = %18, %17
  %20 = getelementptr inbounds nuw i8, ptr %0, i64 8
  tail call void @av_freep(ptr noundef nonnull %20) #13
  %21 = getelementptr inbounds nuw i8, ptr %0, i64 16
  tail call void @av_freep(ptr noundef nonnull %21) #13
  %22 = getelementptr inbounds nuw i8, ptr %0, i64 24
  tail call void @av_freep(ptr noundef nonnull %22) #13
  %23 = getelementptr inbounds nuw i8, ptr %0, i64 72
  store i32 0, ptr %23, align 8, !tbaa !48
  %24 = getelementptr inbounds nuw i8, ptr %0, i64 152
  store ptr null, ptr %24, align 8, !tbaa !49
  %25 = getelementptr inbounds nuw i8, ptr %0, i64 40
  store i64 0, ptr %25, align 8
  br label %26

26:                                               ; preds = %2, %19
  ret void
}